target datalayout = "e-m:e-p270:32:32-p271:32:32-p272:64:64-i64:64-i128:128-f80:128-n8:16:32:64-S128"
target triple = "x86_64-pc-linux-gnu"

%struct.translation_st = type { i32, i32, i32, i32, i32, ptr, ptr, ptr, i32, ptr }

@.str = private unnamed_addr constant [46 x i8] c"../openssl/crypto/evp/ctrl_params_translate.c\00", align 1
@__func__.default_check = private unnamed_addr constant [14 x i8] c"default_check\00", align 1

; Function Attrs: nounwind uwtable
define internal i32 @default_check(i32 noundef %0, ptr noundef %1, ptr noundef %2) #0 {
  %4 = alloca i32, align 4
  %5 = alloca i32, align 4
  %6 = alloca ptr, align 8
  %7 = alloca ptr, align 8
  store i32 %0, ptr %5, align 4, !tbaa !8
  store ptr %1, ptr %6, align 8, !tbaa !11
  store ptr %2, ptr %7, align 8, !tbaa !43
  %8 = load i32, ptr %5, align 4, !tbaa !8
  switch i32 %8, label %9 [
    i32 1, label %10
    i32 4, label %50
    i32 7, label %96
    i32 8, label %96
  ]

9:                                                ; preds = %3
  br label %136

10:                                               ; preds = %3
  %11 = load ptr, ptr %6, align 8, !tbaa !11
  %12 = icmp ne ptr %11, null
  %13 = zext i1 %12 to i32
  %14 = icmp ne i32 %13, 0
  %15 = xor i1 %14, true
  %16 = xor i1 %15, true
  %17 = zext i1 %16 to i32
  %18 = sext i32 %17 to i64
  %19 = call i64 @llvm.expect.i64(i64 %18, i64 1)
  %20 = icmp ne i64 %19, 0
  br i1 %20, label %22, label %21

21:                                               ; preds = %10
  call void @ERR_new()
  call void @ERR_set_debug(ptr noundef @.str, i32 noundef 298, ptr noundef @__func__.default_check)
  call void (i32, i32, ptr, ...) @ERR_set_error(i32 noundef 6, i32 noundef 147, ptr noundef null)
  store i32 -2, ptr %4, align 4
  br label %137

22:                                               ; preds = %10
  %23 = load ptr, ptr %6, align 8, !tbaa !11
  %24 = getelementptr inbounds nuw %struct.translation_st, ptr %23, i32 0, i32 7
  %25 = load ptr, ptr %24, align 8, !tbaa !48
  %26 = icmp ne ptr %25, null
  %27 = zext i1 %26 to i32
  %28 = icmp ne i32 %27, 0
  %29 = xor i1 %28, true
  %30 = xor i1 %29, true
  %31 = zext i1 %30 to i32
  %32 = sext i32 %31 to i64
  %33 = call i64 @llvm.expect.i64(i64 %32, i64 1)
  %34 = icmp ne i64 %33, 0
  br i1 %34, label %35, label %48

35:                                               ; preds = %22
  %36 = load ptr, ptr %6, align 8, !tbaa !11
  %37 = getelementptr inbounds nuw %struct.translation_st, ptr %36, i32 0, i32 8
  %38 = load i32, ptr %37, align 8, !tbaa !47
  %39 = icmp ne i32 %38, 0
  %40 = zext i1 %39 to i32
  %41 = icmp ne i32 %40, 0
  %42 = xor i1 %41, true
  %43 = xor i1 %42, true
  %44 = zext i1 %43 to i32
  %45 = sext i32 %44 to i64
  %46 = call i64 @llvm.expect.i64(i64 %45, i64 1)
  %47 = icmp ne i64 %46, 0
  br i1 %47, label %49, label %48

48:                                               ; preds = %35, %22
  call void @ERR_new()
  call void @ERR_set_debug(ptr noundef @.str, i32 noundef 303, ptr noundef @__func__.default_check)
  call void (i32, i32, ptr, ...) @ERR_set_error(i32 noundef 6, i32 noundef 786691, ptr noundef null)
  store i32 -1, ptr %4, align 4
  br label %137

49:                                               ; preds = %35
  br label %136

50:                                               ; preds = %3
  %51 = load ptr, ptr %6, align 8, !tbaa !11
  %52 = icmp ne ptr %51, null
  br i1 %52, label %53, label %95

53:                                               ; preds = %50
  %54 = load ptr, ptr %6, align 8, !tbaa !11
  %55 = getelementptr inbounds nuw %struct.translation_st, ptr %54, i32 0, i32 0
  %56 = load i32, ptr %55, align 8, !tbaa !34
  %57 = icmp ne i32 %56, 1
  %58 = zext i1 %57 to i32
  %59 = icmp ne i32 %58, 0
  %60 = xor i1 %59, true
  %61 = xor i1 %60, true
  %62 = zext i1 %61 to i32
  %63 = sext i32 %62 to i64
  %64 = call i64 @llvm.expect.i64(i64 %63, i64 1)
  %65 = icmp ne i64 %64, 0
  br i1 %65, label %67, label %66

66:                                               ; preds = %53
  call void @ERR_new()
  call void @ERR_set_debug(ptr noundef @.str, i32 noundef 316, ptr noundef @__func__.default_check)
  call void (i32, i32, ptr, ...) @ERR_set_error(i32 noundef 6, i32 noundef 147, ptr noundef null)
  store i32 -2, ptr %4, align 4
  br label %137

67:                                               ; preds = %53
  %68 = load ptr, ptr %6, align 8, !tbaa !11
  %69 = getelementptr inbounds nuw %struct.translation_st, ptr %68, i32 0, i32 7
  %70 = load ptr, ptr %69, align 8, !tbaa !48
  %71 = icmp ne ptr %70, null
  %72 = zext i1 %71 to i32
  %73 = icmp ne i32 %72, 0
  %74 = xor i1 %73, true
  %75 = xor i1 %74, true
  %76 = zext i1 %75 to i32
  %77 = sext i32 %76 to i64
  %78 = call i64 @llvm.expect.i64(i64 %77, i64 1)
  %79 = icmp ne i64 %78, 0
  br i1 %79, label %80, label %93

80:                                               ; preds = %67
  %81 = load ptr, ptr %6, align 8, !tbaa !11
  %82 = getelementptr inbounds nuw %struct.translation_st, ptr %81, i32 0, i32 8
  %83 = load i32, ptr %82, align 8, !tbaa !47
  %84 = icmp ne i32 %83, 0
  %85 = zext i1 %84 to i32
  %86 = icmp ne i32 %85, 0
  %87 = xor i1 %86, true
  %88 = xor i1 %87, true
  %89 = zext i1 %88 to i32
  %90 = sext i32 %89 to i64
  %91 = call i64 @llvm.expect.i64(i64 %90, i64 1)
  %92 = icmp ne i64 %91, 0
  br i1 %92, label %94, label %93

93:                                               ; preds = %80, %67
  call void @ERR_new()
  call void @ERR_set_debug(ptr noundef @.str, i32 noundef 321, ptr noundef @__func__.default_check)
  call void (i32, i32, ptr, ...) @ERR_set_error(i32 noundef 6, i32 noundef 786691, ptr noundef null)
  store i32 0, ptr %4, align 4
  br label %137

94:                                               ; preds = %80
  br label %95

95:                                               ; preds = %94, %50
  br label %136

96:                                               ; preds = %3, %3
  %97 = load ptr, ptr %6, align 8, !tbaa !11
  %98 = icmp ne ptr %97, null
  %99 = zext i1 %98 to i32
  %100 = icmp ne i32 %99, 0
  %101 = xor i1 %100, true
  %102 = xor i1 %101, true
  %103 = zext i1 %102 to i32
  %104 = sext i32 %103 to i64
  %105 = call i64 @llvm.expect.i64(i64 %104, i64 1)
  %106 = icmp ne i64 %105, 0
  br i1 %106, label %108, label %107

107:                                              ; preds = %96
  call void @ERR_new()
  call void @ERR_set_debug(ptr noundef @.str, i32 noundef 329, ptr noundef @__func__.default_check)
  call void (i32, i32, ptr, ...) @ERR_set_error(i32 noundef 6, i32 noundef 147, ptr noundef null)
  store i32 -2, ptr %4, align 4
  br label %137

108:                                              ; preds = %96
  %109 = load ptr, ptr %6, align 8, !tbaa !11
  %110 = getelementptr inbounds nuw %struct.translation_st, ptr %109, i32 0, i32 4
  %111 = load i32, ptr %110, align 8, !tbaa !25
  %112 = icmp ne i32 %111, 0
  %113 = zext i1 %112 to i32
  %114 = icmp ne i32 %113, 0
  %115 = xor i1 %114, true
  %116 = xor i1 %115, true
  %117 = zext i1 %116 to i32
  %118 = sext i32 %117 to i64
  %119 = call i64 @llvm.expect.i64(i64 %118, i64 1)
  %120 = icmp ne i64 %119, 0
  br i1 %120, label %121, label %134

121:                                              ; preds = %108
  %122 = load ptr, ptr %6, align 8, !tbaa !11
  %123 = getelementptr inbounds nuw %struct.translation_st, ptr %122, i32 0, i32 8
  %124 = load i32, ptr %123, align 8, !tbaa !47
  %125 = icmp ne i32 %124, 0
  %126 = zext i1 %125 to i32
  %127 = icmp ne i32 %126, 0
  %128 = xor i1 %127, true
  %129 = xor i1 %128, true
  %130 = zext i1 %129 to i32
  %131 = sext i32 %130 to i64
  %132 = call i64 @llvm.expect.i64(i64 %131, i64 1)
  %133 = icmp ne i64 %132, 0
  br i1 %133, label %135, label %134

134:                                              ; preds = %121, %108
  call void @ERR_new()
  call void @ERR_set_debug(ptr noundef @.str, i32 noundef 334, ptr noundef @__func__.default_check)
  call void (i32, i32, ptr, ...) @ERR_set_error(i32 noundef 6, i32 noundef 786691, ptr noundef null)
  store i32 -1, ptr %4, align 4
  br label %137

135:                                              ; preds = %121
  br label %136

136:                                              ; preds = %135, %95, %49, %9
  store i32 1, ptr %4, align 4
  br label %137

137:                                              ; preds = %136, %134, %107, %93, %66, %48, %21
  %138 = load i32, ptr %4, align 4
  ret i32 %138
}