; Function Attrs: nounwind uwtable
define internal fastcc range(i32 -2, 2) i32 @default_check(i32 noundef %0, ptr noundef readonly captures(address_is_null) %1) unnamed_addr #0 {
  switch i32 %0, label %26 [
    i32 1, label %3
    i32 4, label %10
    i32 7, label %19
    i32 8, label %19
  ]

3:                                                ; preds = %2
  %.not18 = icmp eq ptr %1, null
  br i1 %.not18, label %.sink.split, label %4, !prof !56

4:                                                ; preds = %3
  %5 = getelementptr inbounds nuw i8, ptr %1, i64 40
  %6 = load ptr, ptr %5, align 8, !tbaa !42
  %.not19 = icmp eq ptr %6, null
  br i1 %.not19, label %.sink.split, label %7, !prof !56

7:                                                ; preds = %4
  %8 = getelementptr inbounds nuw i8, ptr %1, i64 48
  %9 = load i32, ptr %8, align 8, !tbaa !41
  %.not20 = icmp eq i32 %9, 0
  br i1 %.not20, label %.sink.split, label %26, !prof !56

10:                                               ; preds = %2
  %.not14 = icmp eq ptr %1, null
  br i1 %.not14, label %26, label %11

11:                                               ; preds = %10
  %12 = load i32, ptr %1, align 8, !tbaa !28
  %.not15 = icmp eq i32 %12, 1
  br i1 %.not15, label %.sink.split, label %13, !prof !56

13:                                               ; preds = %11
  %14 = getelementptr inbounds nuw i8, ptr %1, i64 40
  %15 = load ptr, ptr %14, align 8, !tbaa !42
  %.not16 = icmp eq ptr %15, null
  br i1 %.not16, label %.sink.split, label %16, !prof !56

16:                                               ; preds = %13
  %17 = getelementptr inbounds nuw i8, ptr %1, i64 48
  %18 = load i32, ptr %17, align 8, !tbaa !41
  %.not17 = icmp eq i32 %18, 0
  br i1 %.not17, label %.sink.split, label %26, !prof !56

19:                                               ; preds = %2, %2
  %.not = icmp eq ptr %1, null
  br i1 %.not, label %.sink.split, label %20, !prof !56

20:                                               ; preds = %19
  %21 = getelementptr inbounds nuw i8, ptr %1, i64 16
  %22 = load i32, ptr %21, align 8, !tbaa !19
  %.not12 = icmp eq i32 %22, 0
  br i1 %.not12, label %.sink.split, label %23, !prof !56

23:                                               ; preds = %20
  %24 = getelementptr inbounds nuw i8, ptr %1, i64 48
  %25 = load i32, ptr %24, align 8, !tbaa !41
  %.not13 = icmp eq i32 %25, 0
  br i1 %.not13, label %.sink.split, label %26, !prof !56

.sink.split:                                      ; preds = %20, %23, %19, %13, %16, %11, %4, %7, %3
  %.sink1 = phi i32 [ 298, %3 ], [ 303, %7 ], [ 303, %4 ], [ 316, %11 ], [ 321, %16 ], [ 321, %13 ], [ 329, %19 ], [ 334, %23 ], [ 334, %20 ]
  %.sink = phi i32 [ 147, %3 ], [ 786691, %7 ], [ 786691, %4 ], [ 147, %11 ], [ 786691, %16 ], [ 786691, %13 ], [ 147, %19 ], [ 786691, %23 ], [ 786691, %20 ]
  %.0.ph = phi i32 [ -2, %3 ], [ -1, %7 ], [ -1, %4 ], [ -2, %11 ], [ 0, %16 ], [ 0, %13 ], [ -2, %19 ], [ -1, %23 ], [ -1, %20 ]
  tail call void @ERR_new() #8
  tail call void @ERR_set_debug(ptr noundef nonnull @.str, i32 noundef %.sink1, ptr noundef nonnull @__func__.default_check) #8
  tail call void (i32, i32, ptr, ...) @ERR_set_error(i32 noundef 6, i32 noundef %.sink, ptr noundef null) #8
  br label %26

26:                                               ; preds = %.sink.split, %2, %7, %16, %10, %23
  %.0 = phi i32 [ 1, %23 ], [ 1, %10 ], [ 1, %16 ], [ 1, %7 ], [ 1, %2 ], [ %.0.ph, %.sink.split ]
  ret i32 %.0
}